target datalayout = "e-m:e-p270:32:32-p271:32:32-p272:64:64-i64:64-i128:128-f80:128-n8:16:32:64-S128"
target triple = "x86_64-pc-linux-gnu"

%struct.Exstate_s = type { ptr, i32, i32, %struct.Exinput_s, ptr, ptr, ptr, i32, i32, i32, ptr, [1 x i8] }
%struct.Exinput_s = type { ptr, i32, ptr, ptr, i32, i32, i32, i32, ptr, ptr }
%union.EX_STYPE = type { ptr }
%struct.Exnode_s = type { i32, i32, i32, ptr, %union.anon.1, %union.Exdata_u, i32 }
%union.anon.1 = type { ptr }
%union.Exdata_u = type { %struct.anon.5 }
%struct.anon.5 = type { ptr, ptr, ptr, ptr }
%struct.Expr_s = type { ptr, ptr, [10 x ptr], ptr, ptr, ptr, %struct._dtdisc_s, ptr, ptr, ptr, %struct.agxbuf, %union.EX_STYPE, %struct.Exid_s, [512 x i8], ptr, i32, i32, i32, i32, i64, i32, i32 }
%struct._dtdisc_s = type { i32, i32, i32, ptr, ptr, ptr }
%struct.agxbuf = type { %union.anon }
%union.anon = type { %struct.anon }
%struct.anon = type { ptr, i64, i64, [7 x i8], i8 }
%struct.Exid_s = type { %struct._dtlink_s, i64, i64, i64, i64, i64, ptr, ptr, i64, [32 x i8] }
%struct._dtlink_s = type { ptr, %union.anon.0 }
%union.anon.0 = type { ptr }
%struct.anon.3 = type { ptr, ptr, ptr }
%struct.Exdisc_s = type { i64, i64, ptr, ptr, ptr, ptr, ptr, ptr, ptr, ptr, ptr, ptr, ptr, ptr, ptr, ptr, ptr, ptr, ptr }

@expr = global %struct.Exstate_s zeroinitializer, align 8
@a2t = internal global [4 x i32] [i32 0, i32 262, i32 259, i32 263], align 16
@.str.77 = private unnamed_addr constant [20 x i8] c"%s: not enough args\00", align 1
@.str.78 = private unnamed_addr constant [18 x i8] c"%s: too many args\00", align 1

; Function Attrs: nounwind uwtable
define internal i32 @T(i32 noundef %0) #0 {
  %2 = alloca i32, align 4
  %3 = alloca i32, align 4
  store i32 %0, ptr %3, align 4
  %4 = getelementptr inbounds %struct.Exstate_s, ptr @expr, i32 0, i32 4
  %5 = load ptr, ptr %4, align 8
  %6 = getelementptr inbounds %struct.Expr_s, ptr %5, i32 0, i32 7
  %7 = load ptr, ptr %6, align 8
  %8 = getelementptr inbounds %struct.Exdisc_s, ptr %7, i32 0, i32 17
  %9 = load ptr, ptr %8, align 8
  %10 = icmp ne ptr %9, null
  br i1 %10, label %11, label %23

11:                                               ; preds = %1
  %12 = getelementptr inbounds %struct.Exstate_s, ptr @expr, i32 0, i32 4
  %13 = load ptr, ptr %12, align 8
  %14 = getelementptr inbounds %struct.Expr_s, ptr %13, i32 0, i32 7
  %15 = load ptr, ptr %14, align 8
  %16 = getelementptr inbounds %struct.Exdisc_s, ptr %15, i32 0, i32 17
  %17 = load ptr, ptr %16, align 8
  %18 = load i32, ptr %3, align 4
  %19 = and i32 %18, 15
  %20 = sext i32 %19 to i64
  %21 = getelementptr inbounds i32, ptr %17, i64 %20
  %22 = load i32, ptr %21, align 4
  store i32 %22, ptr %2, align 4
  br label %29

23:                                               ; preds = %1
  %24 = load i32, ptr %3, align 4
  %25 = and i32 %24, 15
  %26 = sext i32 %25 to i64
  %27 = getelementptr inbounds [4 x i32], ptr @a2t, i64 0, i64 %26
  %28 = load i32, ptr %27, align 4
  store i32 %28, ptr %2, align 4
  br label %29

29:                                               ; preds = %23, %11
  %30 = load i32, ptr %2, align 4
  ret i32 %30
}

; Function Attrs: nounwind uwtable
define ptr @exnewnode(ptr noundef %0, i32 noundef %1, i32 noundef %2, i32 noundef %3, ptr noundef %4, ptr noundef %5) #0 {
  %7 = alloca ptr, align 8
  %8 = alloca i32, align 4
  %9 = alloca i32, align 4
  %10 = alloca i32, align 4
  %11 = alloca ptr, align 8
  %12 = alloca ptr, align 8
  %13 = alloca ptr, align 8
  %14 = alloca %struct.Exnode_s, align 8
  store ptr %0, ptr %7, align 8
  store i32 %1, ptr %8, align 4
  store i32 %2, ptr %9, align 4
  store i32 %3, ptr %10, align 4
  store ptr %4, ptr %11, align 8
  store ptr %5, ptr %12, align 8
  %15 = load ptr, ptr %7, align 8
  %16 = getelementptr inbounds %struct.Expr_s, ptr %15, i32 0, i32 3
  %17 = load ptr, ptr %16, align 8
  %18 = call ptr @vmalloc(ptr noundef %17, i64 noundef 72)
  store ptr %18, ptr %13, align 8
  %19 = load ptr, ptr %13, align 8
  call void @llvm.memset.p0.i64(ptr align 8 %14, i8 0, i64 72, i1 false)
  call void @llvm.memcpy.p0.p0.i64(ptr align 8 %19, ptr align 8 %14, i64 72, i1 false)
  %20 = load i32, ptr %8, align 4
  %21 = load ptr, ptr %13, align 8
  %22 = getelementptr inbounds %struct.Exnode_s, ptr %21, i32 0, i32 1
  store i32 %20, ptr %22, align 4
  %23 = load i32, ptr %10, align 4
  %24 = load ptr, ptr %13, align 8
  %25 = getelementptr inbounds %struct.Exnode_s, ptr %24, i32 0, i32 0
  store i32 %23, ptr %25, align 8
  %26 = load i32, ptr %9, align 4
  %27 = load ptr, ptr %13, align 8
  %28 = getelementptr inbounds %struct.Exnode_s, ptr %27, i32 0, i32 2
  store i32 %26, ptr %28, align 8
  %29 = load ptr, ptr %13, align 8
  %30 = getelementptr inbounds %struct.Exnode_s, ptr %29, i32 0, i32 3
  store ptr null, ptr %30, align 8
  %31 = load ptr, ptr %11, align 8
  %32 = load ptr, ptr %13, align 8
  %33 = getelementptr inbounds %struct.Exnode_s, ptr %32, i32 0, i32 5
  %34 = getelementptr inbounds %struct.anon.3, ptr %33, i32 0, i32 0
  store ptr %31, ptr %34, align 8
  %35 = load ptr, ptr %12, align 8
  %36 = load ptr, ptr %13, align 8
  %37 = getelementptr inbounds %struct.Exnode_s, ptr %36, i32 0, i32 5
  %38 = getelementptr inbounds %struct.anon.3, ptr %37, i32 0, i32 1
  store ptr %35, ptr %38, align 8
  %39 = load ptr, ptr %13, align 8
  ret ptr %39
}

; Function Attrs: nounwind uwtable
define internal ptr @call(ptr noundef %0, ptr noundef %1, ptr noundef %2) #0 {
  %4 = alloca ptr, align 8
  %5 = alloca ptr, align 8
  %6 = alloca ptr, align 8
  %7 = alloca ptr, align 8
  %8 = alloca i32, align 4
  %9 = alloca i32, align 4
  %10 = alloca ptr, align 8
  %11 = alloca i32, align 4
  store ptr %0, ptr %5, align 8
  store ptr %1, ptr %6, align 8
  store ptr %2, ptr %7, align 8
  %12 = getelementptr inbounds %struct.Exstate_s, ptr @expr, i32 0, i32 4
  %13 = load ptr, ptr %12, align 8
  %14 = call ptr @exnewnode(ptr noundef %13, i32 noundef 283, i32 noundef 0, i32 noundef 0, ptr noundef null, ptr noundef null)
  store ptr %14, ptr %10, align 8
  %15 = load ptr, ptr %6, align 8
  %16 = getelementptr inbounds %struct.Exid_s, ptr %15, i32 0, i32 3
  %17 = load i64, ptr %16, align 8
  %18 = trunc i64 %17 to i32
  store i32 %18, ptr %8, align 4
  %19 = load ptr, ptr %6, align 8
  %20 = load ptr, ptr %10, align 8
  %21 = getelementptr inbounds %struct.Exnode_s, ptr %20, i32 0, i32 5
  %22 = getelementptr inbounds %struct.anon.5, ptr %21, i32 0, i32 0
  store ptr %19, ptr %22, align 8
  %23 = load ptr, ptr %5, align 8
  %24 = load ptr, ptr %10, align 8
  %25 = getelementptr inbounds %struct.Exnode_s, ptr %24, i32 0, i32 5
  %26 = getelementptr inbounds %struct.anon.5, ptr %25, i32 0, i32 1
  store ptr %23, ptr %26, align 8
  store i32 0, ptr %11, align 4
  %27 = load i32, ptr %8, align 4
  %28 = ashr i32 %27, 4
  store i32 %28, ptr %8, align 4
  br label %29

29:                                               ; preds = %65, %3
  %30 = load i32, ptr %8, align 4
  %31 = call i32 @T(i32 noundef %30)
  store i32 %31, ptr %9, align 4
  %32 = icmp ne i32 %31, 0
  br i1 %32, label %33, label %72

33:                                               ; preds = %29
  %34 = load ptr, ptr %7, align 8
  %35 = icmp ne ptr %34, null
  br i1 %35, label %41, label %36

36:                                               ; preds = %33
  %37 = load ptr, ptr %6, align 8
  %38 = getelementptr inbounds %struct.Exid_s, ptr %37, i32 0, i32 9
  %39 = getelementptr inbounds [32 x i8], ptr %38, i64 0, i64 0
  call void (ptr, ...) @exerror(ptr noundef @.str.77, ptr noundef %39)
  %40 = load ptr, ptr %7, align 8
  store ptr %40, ptr %4, align 8
  br label %81

41:                                               ; preds = %33
  %42 = load i32, ptr %11, align 4
  %43 = add nsw i32 %42, 1
  store i32 %43, ptr %11, align 4
  %44 = load i32, ptr %9, align 4
  %45 = load ptr, ptr %7, align 8
  %46 = getelementptr inbounds %struct.Exnode_s, ptr %45, i32 0, i32 5
  %47 = getelementptr inbounds %struct.anon.3, ptr %46, i32 0, i32 0
  %48 = load ptr, ptr %47, align 8
  %49 = getelementptr inbounds %struct.Exnode_s, ptr %48, i32 0, i32 0
  %50 = load i32, ptr %49, align 8
  %51 = icmp ne i32 %44, %50
  br i1 %51, label %52, label %65

52:                                               ; preds = %41
  %53 = getelementptr inbounds %struct.Exstate_s, ptr @expr, i32 0, i32 4
  %54 = load ptr, ptr %53, align 8
  %55 = load ptr, ptr %7, align 8
  %56 = getelementptr inbounds %struct.Exnode_s, ptr %55, i32 0, i32 5
  %57 = getelementptr inbounds %struct.anon.3, ptr %56, i32 0, i32 0
  %58 = load ptr, ptr %57, align 8
  %59 = load i32, ptr %9, align 4
  %60 = load i32, ptr %11, align 4
  %61 = call ptr @excast(ptr noundef %54, ptr noundef %58, i32 noundef %59, ptr noundef null, i32 noundef %60)
  %62 = load ptr, ptr %7, align 8
  %63 = getelementptr inbounds %struct.Exnode_s, ptr %62, i32 0, i32 5
  %64 = getelementptr inbounds %struct.anon.3, ptr %63, i32 0, i32 0
  store ptr %61, ptr %64, align 8
  br label %65

65:                                               ; preds = %52, %41
  %66 = load ptr, ptr %7, align 8
  %67 = getelementptr inbounds %struct.Exnode_s, ptr %66, i32 0, i32 5
  %68 = getelementptr inbounds %struct.anon.3, ptr %67, i32 0, i32 1
  %69 = load ptr, ptr %68, align 8
  store ptr %69, ptr %7, align 8
  %70 = load i32, ptr %8, align 4
  %71 = ashr i32 %70, 4
  store i32 %71, ptr %8, align 4
  br label %29

72:                                               ; preds = %29
  %73 = load ptr, ptr %7, align 8
  %74 = icmp ne ptr %73, null
  br i1 %74, label %75, label %79

75:                                               ; preds = %72
  %76 = load ptr, ptr %6, align 8
  %77 = getelementptr inbounds %struct.Exid_s, ptr %76, i32 0, i32 9
  %78 = getelementptr inbounds [32 x i8], ptr %77, i64 0, i64 0
  call void (ptr, ...) @exerror(ptr noundef @.str.78, ptr noundef %78)
  br label %79

79:                                               ; preds = %75, %72
  %80 = load ptr, ptr %10, align 8
  store ptr %80, ptr %4, align 8
  br label %81

81:                                               ; preds = %79, %36
  %82 = load ptr, ptr %4, align 8
  ret ptr %82
}