; Function Attrs: nounwind uwtable
define internal fastcc noundef ptr @call(ptr noundef %0, ptr noundef %1) unnamed_addr #0 {
  %3 = load ptr, ptr getelementptr inbounds nuw (i8, ptr @expr, i64 80), align 8
  %4 = getelementptr inbounds nuw i8, ptr %3, i64 96
  %5 = load ptr, ptr %4, align 8
  %6 = tail call ptr @vmalloc(ptr noundef %5, i64 noundef 72) #22
  %7 = getelementptr inbounds nuw i8, ptr %6, i64 8
  tail call void @llvm.memset.p0.i64(ptr noundef nonnull align 8 dereferenceable(64) %7, i8 0, i64 64, i1 false)
  %8 = getelementptr inbounds nuw i8, ptr %6, i64 4
  store i32 283, ptr %8, align 4
  store i32 0, ptr %6, align 8
  %9 = getelementptr inbounds nuw i8, ptr %6, i64 32
  %10 = getelementptr inbounds nuw i8, ptr %6, i64 40
  %11 = getelementptr inbounds nuw i8, ptr %0, i64 32
  tail call void @llvm.memset.p0.i64(ptr noundef nonnull align 8 dereferenceable(16) %9, i8 0, i64 16, i1 false)
  %12 = load i64, ptr %11, align 8
  %13 = trunc i64 %12 to i32
  store ptr %0, ptr %9, align 8
  store ptr null, ptr %10, align 8
  %.0242 = ashr i32 %13, 4
  %14 = load ptr, ptr getelementptr inbounds nuw (i8, ptr @expr, i64 80), align 8
  %15 = getelementptr inbounds nuw i8, ptr %14, i64 160
  %16 = load ptr, ptr %15, align 8
  %17 = getelementptr inbounds nuw i8, ptr %16, i64 136
  %18 = load ptr, ptr %17, align 8
  %.not.i3 = icmp eq ptr %18, null
  %19 = and i32 %.0242, 15
  %20 = zext nneg i32 %19 to i64
  %21 = getelementptr inbounds nuw i32, ptr %18, i64 %20
  %22 = getelementptr inbounds nuw [4 x i32], ptr @a2t, i64 0, i64 %20
  %.0.in.i4 = select i1 %.not.i3, ptr %22, ptr %21
  %.0.i5 = load i32, ptr %.0.in.i4, align 4
  %.not6 = icmp eq i32 %.0.i5, 0
  br i1 %.not6, label %._crit_edge, label %.lr.ph

.lr.ph:                                           ; preds = %2, %31
  %23 = phi ptr [ %32, %31 ], [ %14, %2 ]
  %.0.i10 = phi i32 [ %.0.i, %31 ], [ %.0.i5, %2 ]
  %.0249 = phi i32 [ %.024, %31 ], [ %.0242, %2 ]
  %.08 = phi i32 [ %25, %31 ], [ 0, %2 ]
  %.0237 = phi ptr [ %34, %31 ], [ %1, %2 ]
  %.not27 = icmp eq ptr %.0237, null
  br i1 %.not27, label %.sink.split, label %24

24:                                               ; preds = %.lr.ph
  %25 = add nuw nsw i32 %.08, 1
  %26 = getelementptr inbounds nuw i8, ptr %.0237, i64 32
  %27 = load ptr, ptr %26, align 8
  %28 = load i32, ptr %27, align 8
  %.not28 = icmp eq i32 %.0.i10, %28
  br i1 %.not28, label %31, label %29

29:                                               ; preds = %24
  %30 = tail call ptr @excast(ptr noundef nonnull %23, ptr noundef nonnull %27, i32 noundef %.0.i10, ptr noundef null, i32 noundef %25)
  store ptr %30, ptr %26, align 8
  %.pre = load ptr, ptr getelementptr inbounds nuw (i8, ptr @expr, i64 80), align 8
  br label %31

31:                                               ; preds = %29, %24
  %32 = phi ptr [ %.pre, %29 ], [ %23, %24 ]
  %33 = getelementptr inbounds nuw i8, ptr %.0237, i64 40
  %34 = load ptr, ptr %33, align 8
  %.024 = ashr i32 %.0249, 4
  %35 = getelementptr inbounds nuw i8, ptr %32, i64 160
  %36 = load ptr, ptr %35, align 8
  %37 = getelementptr inbounds nuw i8, ptr %36, i64 136
  %38 = load ptr, ptr %37, align 8
  %.not.i = icmp eq ptr %38, null
  %39 = and i32 %.024, 15
  %40 = zext nneg i32 %39 to i64
  %41 = getelementptr inbounds nuw i32, ptr %38, i64 %40
  %42 = getelementptr inbounds nuw [4 x i32], ptr @a2t, i64 0, i64 %40
  %.0.in.i = select i1 %.not.i, ptr %42, ptr %41
  %.0.i = load i32, ptr %.0.in.i, align 4
  %.not = icmp eq i32 %.0.i, 0
  br i1 %.not, label %._crit_edge, label %.lr.ph

._crit_edge:                                      ; preds = %31, %2
  %.023.lcssa = phi ptr [ %1, %2 ], [ %34, %31 ]
  %.not26 = icmp eq ptr %.023.lcssa, null
  br i1 %.not26, label %44, label %.sink.split

.sink.split:                                      ; preds = %.lr.ph, %._crit_edge
  %.str.78.sink = phi ptr [ @.str.78, %._crit_edge ], [ @.str.77, %.lr.ph ]
  %.022.ph = phi ptr [ %6, %._crit_edge ], [ null, %.lr.ph ]
  %43 = getelementptr inbounds nuw i8, ptr %0, i64 80
  tail call void (ptr, ...) @exerror(ptr noundef nonnull %.str.78.sink, ptr noundef nonnull %43) #22
  br label %44

44:                                               ; preds = %.sink.split, %._crit_edge
  %.022 = phi ptr [ %6, %._crit_edge ], [ %.022.ph, %.sink.split ]
  ret ptr %.022
}